
Merging program properties

Removed property 0xc0000002 to merge inithead.o (0x3) and imginithead.o (not found)
Removed property 0xc0000002 to merge inithead.o (not found) and vgastr.o (0x3)

Discarded input sections

 .group         0x0000000000000000        0x8 inithead.o
 .group         0x0000000000000000        0x8 inithead.o
 .note.gnu.property
                0x0000000000000000       0x1c inithead.o
 .group         0x0000000000000000        0x8 vgastr.o
 .group         0x0000000000000000        0x8 vgastr.o
 .note.gnu.property
                0x0000000000000000       0x1c vgastr.o

Memory Configuration

Name             Origin             Length             Attributes
*default*        0x0000000000000000 0xffffffffffffffff

Linker script and memory map

                0x0000000004000000                . = 0x4000000
                0x0000000004000000                __start_ldr = .
                0x0000000004000000                __begin_start_text = .

.start.text
 *(.start.text)
                0x0000000004000000                __end_start_text = .
                0x0000000004090000                //. = (0x90000 + .)
                0x0000000004000000                __begin_text = .

.text           0x0000000004000000      0x5dd
 *(.text)
 .text          0x0000000004000000       0xd8 imginithead.o
                0x0000000004000000                _start
 .text          0x00000000040000d8      0x24b inithead.o
                0x0000000004000125                error
                0x000000000400014d                strcmpl
                0x0000000004000173                find_file
                0x000000000400024f                write_realintsvefile
                0x000000000400029d                write_ldrkrlfile
                0x00000000040002eb                inithead_entry
 .text          0x0000000004000323      0x2ba vgastr.o
                0x0000000004000323                init_curs
                0x0000000004000364                numberk
                0x00000000040003d3                set_curs
                0x00000000040003f6                put_one_char
                0x0000000004000411                close_curs
                0x0000000004000426                clear_screen
                0x0000000004000460                GxH_strwrite
                0x000000000400050a                strcopy
                0x000000000400052d                vsprintfk
                0x0000000004000597                kprint
                0x00000000040005dd                __end_text = .
                0x00000000040005dd                __begin_data = .

.iplt           0x00000000040005dd        0x0
 .iplt          0x00000000040005dd        0x0 imginithead.o

.text.__x86.get_pc_thunk.bx
                0x00000000040005dd        0x4
 .text.__x86.get_pc_thunk.bx
                0x00000000040005dd        0x4 inithead.o
                0x00000000040005dd                __x86.get_pc_thunk.bx

.text.__x86.get_pc_thunk.bp
                0x00000000040005e1        0x4
 .text.__x86.get_pc_thunk.bp
                0x00000000040005e1        0x4 inithead.o
                0x00000000040005e1                __x86.get_pc_thunk.bp

.text.__x86.get_pc_thunk.ax
                0x00000000040005e5        0x4
 .text.__x86.get_pc_thunk.ax
                0x00000000040005e5        0x4 vgastr.o
                0x00000000040005e5                __x86.get_pc_thunk.ax

.text.__x86.get_pc_thunk.si
                0x00000000040005e9        0x4
 .text.__x86.get_pc_thunk.si
                0x00000000040005e9        0x4 vgastr.o
                0x00000000040005e9                __x86.get_pc_thunk.si

.data           0x00000000040005f0       0x14
 *(.data)
 .data          0x00000000040005f0        0x0 inithead.o
 .data          0x00000000040005f0       0x14 vgastr.o
                0x00000000040005f0                curs
                0x0000000004000604                __end_data = .
                0x0000000004000604                __begin_rodata = .

.got            0x0000000004000604        0x0
 .got           0x0000000004000604        0x0 imginithead.o

.got.plt        0x0000000004000604        0xc
 .got.plt       0x0000000004000604        0xc imginithead.o
                0x0000000004000604                _GLOBAL_OFFSET_TABLE_

.igot.plt       0x0000000004000610        0x0
 .igot.plt      0x0000000004000610        0x0 imginithead.o

.rodata         0x0000000004000610       0x6f
 *(.rodata)
 *(.rodata.*)
 .rodata.str1.1
                0x0000000004000610       0x5e inithead.o
                                         0x7c (size before relaxing)
 .rodata.str1.1
                0x000000000400066e       0x11 vgastr.o
                0x000000000400067f                __end_rodata = .
                0x000000000400067f                __begin_kstrtab = .

.eh_frame       0x0000000004000680      0x324
 .eh_frame      0x0000000004000680      0x180 inithead.o
 .eh_frame      0x0000000004000800      0x1a4 vgastr.o
                                        0x1bc (size before relaxing)

.rel.dyn        0x00000000040009a4        0x0
 .rel.got       0x00000000040009a4        0x0 imginithead.o
 .rel.iplt      0x00000000040009a4        0x0 imginithead.o

.kstrtab
 *(.kstrtab)
                0x00000000040009a4                __end_kstrtab = .
                0x00000000040009a4                __begin_bss = .

.bss            0x00000000040009a4        0x0
 *(.bss)
 .bss           0x00000000040009a4        0x0 inithead.o
 .bss           0x00000000040009a4        0x0 vgastr.o
                0x00000000040009a4                __end_bss = .
                0x00000000040009a4                __end_ldr = .
LOAD imginithead.o
LOAD inithead.o
LOAD vgastr.o
OUTPUT(initldrimh.elf elf32-i386)

.note.GNU-stack
                0x0000000000000000        0x0
 .note.GNU-stack
                0x0000000000000000        0x0 inithead.o
 .note.GNU-stack
                0x0000000000000000        0x0 vgastr.o
